; Function Attrs: nounwind uwtable
define internal range(i32 0, 23) i32 @epoch_ctl(ptr noundef %0, ptr readnone captures(none) %1, i64 %2, ptr noundef writeonly captures(address_is_null) %3, ptr noundef captures(address_is_null) %4, ptr noundef readnone captures(address_is_null) %5, i64 noundef %6) #0 {
  %8 = tail call i32 @pthread_mutex_trylock(ptr noundef nonnull getelementptr inbounds nuw (i8, ptr @ctl_mtx, i64 72)) #15
  %.not.i = icmp eq i32 %8, 0
  br i1 %.not.i, label %malloc_mutex_trylock_final.exit.i, label %9

malloc_mutex_trylock_final.exit.i:                ; preds = %7
  store atomic i8 1, ptr getelementptr inbounds nuw (i8, ptr @ctl_mtx, i64 64) monotonic, align 8
  br label %10

9:                                                ; preds = %7
  tail call void @je_malloc_mutex_lock_slow(ptr noundef nonnull @ctl_mtx) #15
  br label %10

10:                                               ; preds = %9, %malloc_mutex_trylock_final.exit.i
  %11 = load i64, ptr getelementptr inbounds nuw (i8, ptr @ctl_mtx, i64 56), align 8, !tbaa !17
  %12 = add i64 %11, 1
  store i64 %12, ptr getelementptr inbounds nuw (i8, ptr @ctl_mtx, i64 56), align 8, !tbaa !17
  %13 = load ptr, ptr getelementptr inbounds nuw (i8, ptr @ctl_mtx, i64 48), align 8, !tbaa !23
  %.not.i.i = icmp eq ptr %13, %0
  br i1 %.not.i.i, label %malloc_mutex_lock.exit, label %14

14:                                               ; preds = %10
  store ptr %0, ptr getelementptr inbounds nuw (i8, ptr @ctl_mtx, i64 48), align 8, !tbaa !23
  %15 = load i64, ptr getelementptr inbounds nuw (i8, ptr @ctl_mtx, i64 40), align 8, !tbaa !24
  %16 = add i64 %15, 1
  store i64 %16, ptr getelementptr inbounds nuw (i8, ptr @ctl_mtx, i64 40), align 8, !tbaa !24
  br label %malloc_mutex_lock.exit

malloc_mutex_lock.exit:                           ; preds = %10, %14
  %.not = icmp eq ptr %5, null
  br i1 %.not, label %.critedge, label %17

17:                                               ; preds = %malloc_mutex_lock.exit
  %.not24 = icmp eq i64 %6, 8
  br i1 %.not24, label %18, label %28

18:                                               ; preds = %17
  tail call fastcc void @ctl_refresh(ptr noundef %0)
  br label %.critedge

.critedge:                                        ; preds = %malloc_mutex_lock.exit, %18
  %19 = icmp ne ptr %3, null
  %20 = icmp ne ptr %4, null
  %or.cond = and i1 %19, %20
  br i1 %or.cond, label %21, label %28

21:                                               ; preds = %.critedge
  %22 = load i64, ptr %4, align 8, !tbaa !4
  %.not25 = icmp eq i64 %22, 8
  br i1 %.not25, label %25, label %23

23:                                               ; preds = %21
  %spec.select = tail call i64 @llvm.umin.i64(i64 %22, i64 8)
  %24 = load ptr, ptr @ctl_arenas, align 8, !tbaa !25
  tail call void @llvm.memcpy.p0.p0.i64(ptr nonnull align 1 %3, ptr align 1 %24, i64 %spec.select, i1 false)
  store i64 %spec.select, ptr %4, align 8, !tbaa !4
  br label %28

25:                                               ; preds = %21
  %26 = load ptr, ptr @ctl_arenas, align 8, !tbaa !25
  %27 = load i64, ptr %26, align 8, !tbaa !98
  store i64 %27, ptr %3, align 8, !tbaa !4
  br label %28

28:                                               ; preds = %.critedge, %25, %17, %23
  %.020 = phi i32 [ 22, %23 ], [ 22, %17 ], [ 0, %25 ], [ 0, %.critedge ]
  store atomic i8 0, ptr getelementptr inbounds nuw (i8, ptr @ctl_mtx, i64 64) monotonic, align 8
  %29 = tail call i32 @pthread_mutex_unlock(ptr noundef nonnull getelementptr inbounds nuw (i8, ptr @ctl_mtx, i64 72)) #15
  ret i32 %.020
}